target datalayout = "e-m:e-p270:32:32-p271:32:32-p272:64:64-i64:64-i128:128-f80:128-n8:16:32:64-S128"
target triple = "x86_64-pc-linux-gnu"

%"struct.__gnu_cxx::__ops::_Iter_pred.182" = type { i8 }

; Function Attrs: inlinehint mustprogress uwtable
define internal noundef zeroext i1 @"_ZZN11OpenImageIO6v3_1_012ImageBufAlgo7IBAprepERNS0_3ROIERNS0_8ImageBufENS0_4spanIKPKS4_Lm18446744073709551615EEENS0_14ParamValueSpanEPNS0_9ImageSpecEENK3$_8clES8_"(ptr noundef nonnull align 1 dereferenceable(1) %0, ptr noundef %1) #10 align 2 {
  %3 = alloca ptr, align 8
  %4 = alloca ptr, align 8
  store ptr %0, ptr %3, align 8, !tbaa !133
  store ptr %1, ptr %4, align 8, !tbaa !10
  %5 = load ptr, ptr %4, align 8, !tbaa !10
  %6 = call noundef zeroext i1 @_ZNK11OpenImageIO6v3_1_08ImageBuf4deepEv(ptr noundef nonnull align 8 dereferenceable(16) %5)
  %7 = xor i1 %6, true
  ret i1 %7
}

; Function Attrs: mustprogress uwtable
define internal noundef zeroext i1 @"_ZN9__gnu_cxx5__ops10_Iter_predIZN11OpenImageIO6v3_1_012ImageBufAlgo7IBAprepERNS3_3ROIERNS3_8ImageBufENS3_4spanIKPKS7_Lm18446744073709551615EEENS3_14ParamValueSpanEPNS3_9ImageSpecEE3$_8EclIPSC_EEbT_"(ptr noundef nonnull align 1 dereferenceable(1) %0, ptr noundef %1) #6 align 2 {
  %3 = alloca ptr, align 8
  %4 = alloca ptr, align 8
  store ptr %0, ptr %3, align 8, !tbaa !1185
  store ptr %1, ptr %4, align 8, !tbaa !89
  %5 = load ptr, ptr %3, align 8
  %6 = load ptr, ptr %4, align 8, !tbaa !89
  %7 = load ptr, ptr %6, align 8, !tbaa !10
  %8 = call noundef zeroext i1 @"_ZZN11OpenImageIO6v3_1_012ImageBufAlgo7IBAprepERNS0_3ROIERNS0_8ImageBufENS0_4spanIKPKS4_Lm18446744073709551615EEENS0_14ParamValueSpanEPNS0_9ImageSpecEENK3$_8clES8_"(ptr noundef nonnull align 1 dereferenceable(1) %5, ptr noundef %7)
  ret i1 %8
}

; Function Attrs: mustprogress uwtable
define internal noundef ptr @"_ZSt9__find_ifIPKPKN11OpenImageIO6v3_1_08ImageBufEN9__gnu_cxx5__ops10_Iter_predIZNS1_12ImageBufAlgo7IBAprepERNS1_3ROIERS2_NS1_4spanIS5_Lm18446744073709551615EEENS1_14ParamValueSpanEPNS1_9ImageSpecEE3$_8EEET_SL_SL_T0_St26random_access_iterator_tag"(ptr noundef %0, ptr noundef %1) #6 {
  %3 = alloca ptr, align 8
  %4 = alloca %"struct.__gnu_cxx::__ops::_Iter_pred.182", align 1
  %5 = alloca ptr, align 8
  %6 = alloca ptr, align 8
  %7 = alloca i64, align 8
  %8 = alloca i32, align 4
  store ptr %0, ptr %5, align 8, !tbaa !89
  store ptr %1, ptr %6, align 8, !tbaa !89
  call void @llvm.lifetime.start.p0(i64 8, ptr %7) #3
  %9 = load ptr, ptr %6, align 8, !tbaa !89
  %10 = load ptr, ptr %5, align 8, !tbaa !89
  %11 = ptrtoint ptr %9 to i64
  %12 = ptrtoint ptr %10 to i64
  %13 = sub i64 %11, %12
  %14 = sdiv exact i64 %13, 8
  %15 = ashr i64 %14, 2
  store i64 %15, ptr %7, align 8, !tbaa !79
  br label %16

16:                                               ; preds = %48, %2
  %17 = load i64, ptr %7, align 8, !tbaa !79
  %18 = icmp sgt i64 %17, 0
  br i1 %18, label %19, label %51

19:                                               ; preds = %16
  %20 = load ptr, ptr %5, align 8, !tbaa !89
  %21 = call noundef zeroext i1 @"_ZN9__gnu_cxx5__ops10_Iter_predIZN11OpenImageIO6v3_1_012ImageBufAlgo7IBAprepERNS3_3ROIERNS3_8ImageBufENS3_4spanIKPKS7_Lm18446744073709551615EEENS3_14ParamValueSpanEPNS3_9ImageSpecEE3$_8EclIPSC_EEbT_"(ptr noundef nonnull align 1 dereferenceable(1) %4, ptr noundef %20)
  br i1 %21, label %22, label %24

22:                                               ; preds = %19
  %23 = load ptr, ptr %5, align 8, !tbaa !89
  store ptr %23, ptr %3, align 8
  store i32 1, ptr %8, align 4
  br label %85

24:                                               ; preds = %19
  %25 = load ptr, ptr %5, align 8, !tbaa !89
  %26 = getelementptr inbounds nuw ptr, ptr %25, i32 1
  store ptr %26, ptr %5, align 8, !tbaa !89
  %27 = load ptr, ptr %5, align 8, !tbaa !89
  %28 = call noundef zeroext i1 @"_ZN9__gnu_cxx5__ops10_Iter_predIZN11OpenImageIO6v3_1_012ImageBufAlgo7IBAprepERNS3_3ROIERNS3_8ImageBufENS3_4spanIKPKS7_Lm18446744073709551615EEENS3_14ParamValueSpanEPNS3_9ImageSpecEE3$_8EclIPSC_EEbT_"(ptr noundef nonnull align 1 dereferenceable(1) %4, ptr noundef %27)
  br i1 %28, label %29, label %31

29:                                               ; preds = %24
  %30 = load ptr, ptr %5, align 8, !tbaa !89
  store ptr %30, ptr %3, align 8
  store i32 1, ptr %8, align 4
  br label %85

31:                                               ; preds = %24
  %32 = load ptr, ptr %5, align 8, !tbaa !89
  %33 = getelementptr inbounds nuw ptr, ptr %32, i32 1
  store ptr %33, ptr %5, align 8, !tbaa !89
  %34 = load ptr, ptr %5, align 8, !tbaa !89
  %35 = call noundef zeroext i1 @"_ZN9__gnu_cxx5__ops10_Iter_predIZN11OpenImageIO6v3_1_012ImageBufAlgo7IBAprepERNS3_3ROIERNS3_8ImageBufENS3_4spanIKPKS7_Lm18446744073709551615EEENS3_14ParamValueSpanEPNS3_9ImageSpecEE3$_8EclIPSC_EEbT_"(ptr noundef nonnull align 1 dereferenceable(1) %4, ptr noundef %34)
  br i1 %35, label %36, label %38

36:                                               ; preds = %31
  %37 = load ptr, ptr %5, align 8, !tbaa !89
  store ptr %37, ptr %3, align 8
  store i32 1, ptr %8, align 4
  br label %85

38:                                               ; preds = %31
  %39 = load ptr, ptr %5, align 8, !tbaa !89
  %40 = getelementptr inbounds nuw ptr, ptr %39, i32 1
  store ptr %40, ptr %5, align 8, !tbaa !89
  %41 = load ptr, ptr %5, align 8, !tbaa !89
  %42 = call noundef zeroext i1 @"_ZN9__gnu_cxx5__ops10_Iter_predIZN11OpenImageIO6v3_1_012ImageBufAlgo7IBAprepERNS3_3ROIERNS3_8ImageBufENS3_4spanIKPKS7_Lm18446744073709551615EEENS3_14ParamValueSpanEPNS3_9ImageSpecEE3$_8EclIPSC_EEbT_"(ptr noundef nonnull align 1 dereferenceable(1) %4, ptr noundef %41)
  br i1 %42, label %43, label %45

43:                                               ; preds = %38
  %44 = load ptr, ptr %5, align 8, !tbaa !89
  store ptr %44, ptr %3, align 8
  store i32 1, ptr %8, align 4
  br label %85

45:                                               ; preds = %38
  %46 = load ptr, ptr %5, align 8, !tbaa !89
  %47 = getelementptr inbounds nuw ptr, ptr %46, i32 1
  store ptr %47, ptr %5, align 8, !tbaa !89
  br label %48

48:                                               ; preds = %45
  %49 = load i64, ptr %7, align 8, !tbaa !79
  %50 = add nsw i64 %49, -1
  store i64 %50, ptr %7, align 8, !tbaa !79
  br label %16, !llvm.loop !1184

51:                                               ; preds = %16
  %52 = load ptr, ptr %6, align 8, !tbaa !89
  %53 = load ptr, ptr %5, align 8, !tbaa !89
  %54 = ptrtoint ptr %52 to i64
  %55 = ptrtoint ptr %53 to i64
  %56 = sub i64 %54, %55
  %57 = sdiv exact i64 %56, 8
  switch i64 %57, label %83 [
    i64 3, label %58
    i64 2, label %66
    i64 1, label %74
    i64 0, label %82
  ]

58:                                               ; preds = %51
  %59 = load ptr, ptr %5, align 8, !tbaa !89
  %60 = call noundef zeroext i1 @"_ZN9__gnu_cxx5__ops10_Iter_predIZN11OpenImageIO6v3_1_012ImageBufAlgo7IBAprepERNS3_3ROIERNS3_8ImageBufENS3_4spanIKPKS7_Lm18446744073709551615EEENS3_14ParamValueSpanEPNS3_9ImageSpecEE3$_8EclIPSC_EEbT_"(ptr noundef nonnull align 1 dereferenceable(1) %4, ptr noundef %59)
  br i1 %60, label %61, label %63

61:                                               ; preds = %58
  %62 = load ptr, ptr %5, align 8, !tbaa !89
  store ptr %62, ptr %3, align 8
  store i32 1, ptr %8, align 4
  br label %85

63:                                               ; preds = %58
  %64 = load ptr, ptr %5, align 8, !tbaa !89
  %65 = getelementptr inbounds nuw ptr, ptr %64, i32 1
  store ptr %65, ptr %5, align 8, !tbaa !89
  br label %66

66:                                               ; preds = %51, %63
  %67 = load ptr, ptr %5, align 8, !tbaa !89
  %68 = call noundef zeroext i1 @"_ZN9__gnu_cxx5__ops10_Iter_predIZN11OpenImageIO6v3_1_012ImageBufAlgo7IBAprepERNS3_3ROIERNS3_8ImageBufENS3_4spanIKPKS7_Lm18446744073709551615EEENS3_14ParamValueSpanEPNS3_9ImageSpecEE3$_8EclIPSC_EEbT_"(ptr noundef nonnull align 1 dereferenceable(1) %4, ptr noundef %67)
  br i1 %68, label %69, label %71

69:                                               ; preds = %66
  %70 = load ptr, ptr %5, align 8, !tbaa !89
  store ptr %70, ptr %3, align 8
  store i32 1, ptr %8, align 4
  br label %85

71:                                               ; preds = %66
  %72 = load ptr, ptr %5, align 8, !tbaa !89
  %73 = getelementptr inbounds nuw ptr, ptr %72, i32 1
  store ptr %73, ptr %5, align 8, !tbaa !89
  br label %74

74:                                               ; preds = %51, %71
  %75 = load ptr, ptr %5, align 8, !tbaa !89
  %76 = call noundef zeroext i1 @"_ZN9__gnu_cxx5__ops10_Iter_predIZN11OpenImageIO6v3_1_012ImageBufAlgo7IBAprepERNS3_3ROIERNS3_8ImageBufENS3_4spanIKPKS7_Lm18446744073709551615EEENS3_14ParamValueSpanEPNS3_9ImageSpecEE3$_8EclIPSC_EEbT_"(ptr noundef nonnull align 1 dereferenceable(1) %4, ptr noundef %75)
  br i1 %76, label %77, label %79

77:                                               ; preds = %74
  %78 = load ptr, ptr %5, align 8, !tbaa !89
  store ptr %78, ptr %3, align 8
  store i32 1, ptr %8, align 4
  br label %85

79:                                               ; preds = %74
  %80 = load ptr, ptr %5, align 8, !tbaa !89
  %81 = getelementptr inbounds nuw ptr, ptr %80, i32 1
  store ptr %81, ptr %5, align 8, !tbaa !89
  br label %82

82:                                               ; preds = %51, %79
  br label %83

83:                                               ; preds = %51, %82
  %84 = load ptr, ptr %6, align 8, !tbaa !89
  store ptr %84, ptr %3, align 8
  store i32 1, ptr %8, align 4
  br label %85

85:                                               ; preds = %83, %77, %69, %61, %43, %36, %29, %22
  call void @llvm.lifetime.end.p0(i64 8, ptr %7) #3
  %86 = load ptr, ptr %3, align 8
  ret ptr %86
}

; Function Attrs: inlinehint mustprogress nounwind uwtable
define linkonce_odr void @_ZSt19__iterator_categoryIPKPKN11OpenImageIO6v3_1_08ImageBufEENSt15iterator_traitsIT_E17iterator_categoryERKS8_(ptr noundef nonnull align 8 dereferenceable(8) %0) #4 comdat {
  %2 = alloca ptr, align 8
  store ptr %0, ptr %2, align 8, !tbaa !1151
  ret void
}

; Function Attrs: mustprogress nounwind uwtable
define internal void @"_ZN9__gnu_cxx5__ops10_Iter_predIZN11OpenImageIO6v3_1_012ImageBufAlgo7IBAprepERNS3_3ROIERNS3_8ImageBufENS3_4spanIKPKS7_Lm18446744073709551615EEENS3_14ParamValueSpanEPNS3_9ImageSpecEE3$_8EC2ESH_"(ptr noundef nonnull align 1 dereferenceable(1) %0) unnamed_addr #8 align 2 {
  %2 = alloca ptr, align 8
  store ptr %0, ptr %2, align 8, !tbaa !1185
  ret void
}

; Function Attrs: inlinehint mustprogress uwtable
define internal noundef ptr @"_ZSt9__find_ifIPKPKN11OpenImageIO6v3_1_08ImageBufEN9__gnu_cxx5__ops10_Iter_predIZNS1_12ImageBufAlgo7IBAprepERNS1_3ROIERS2_NS1_4spanIS5_Lm18446744073709551615EEENS1_14ParamValueSpanEPNS1_9ImageSpecEE3$_8EEET_SL_SL_T0_"(ptr noundef %0, ptr noundef %1) #10 {
  %3 = alloca %"struct.__gnu_cxx::__ops::_Iter_pred.182", align 1
  %4 = alloca ptr, align 8
  %5 = alloca ptr, align 8
  %6 = alloca %"struct.__gnu_cxx::__ops::_Iter_pred.182", align 1
  store ptr %0, ptr %4, align 8, !tbaa !89
  store ptr %1, ptr %5, align 8, !tbaa !89
  %7 = load ptr, ptr %4, align 8, !tbaa !89
  %8 = load ptr, ptr %5, align 8, !tbaa !89
  call void @llvm.memcpy.p0.p0.i64(ptr align 1 %6, ptr align 1 %3, i64 1, i1 false), !tbaa.struct !114
  call void @_ZSt19__iterator_categoryIPKPKN11OpenImageIO6v3_1_08ImageBufEENSt15iterator_traitsIT_E17iterator_categoryERKS8_(ptr noundef nonnull align 8 dereferenceable(8) %4)
  %9 = call noundef ptr @"_ZSt9__find_ifIPKPKN11OpenImageIO6v3_1_08ImageBufEN9__gnu_cxx5__ops10_Iter_predIZNS1_12ImageBufAlgo7IBAprepERNS1_3ROIERS2_NS1_4spanIS5_Lm18446744073709551615EEENS1_14ParamValueSpanEPNS1_9ImageSpecEE3$_8EEET_SL_SL_T0_St26random_access_iterator_tag"(ptr noundef %7, ptr noundef %8)
  ret ptr %9
}

; Function Attrs: inlinehint mustprogress uwtable
define internal void @"_ZN9__gnu_cxx5__ops11__pred_iterIZN11OpenImageIO6v3_1_012ImageBufAlgo7IBAprepERNS3_3ROIERNS3_8ImageBufENS3_4spanIKPKS7_Lm18446744073709551615EEENS3_14ParamValueSpanEPNS3_9ImageSpecEE3$_8EENS0_10_Iter_predIT_EESJ_"() #10 {
  %1 = alloca %"struct.__gnu_cxx::__ops::_Iter_pred.182", align 1
  call void @"_ZN9__gnu_cxx5__ops10_Iter_predIZN11OpenImageIO6v3_1_012ImageBufAlgo7IBAprepERNS3_3ROIERNS3_8ImageBufENS3_4spanIKPKS7_Lm18446744073709551615EEENS3_14ParamValueSpanEPNS3_9ImageSpecEE3$_8EC2ESH_"(ptr noundef nonnull align 1 dereferenceable(1) %1)
  ret void
}

; Function Attrs: inlinehint mustprogress uwtable
define internal noundef ptr @"_ZSt7find_ifIPKPKN11OpenImageIO6v3_1_08ImageBufEZNS1_12ImageBufAlgo7IBAprepERNS1_3ROIERS2_NS1_4spanIS5_Lm18446744073709551615EEENS1_14ParamValueSpanEPNS1_9ImageSpecEE3$_8ET_SH_SH_T0_"(ptr noundef %0, ptr noundef %1) #10 {
  %3 = alloca ptr, align 8
  %4 = alloca ptr, align 8
  store ptr %0, ptr %3, align 8, !tbaa !89
  store ptr %1, ptr %4, align 8, !tbaa !89
  %5 = load ptr, ptr %3, align 8, !tbaa !89
  %6 = load ptr, ptr %4, align 8, !tbaa !89
  call void @"_ZN9__gnu_cxx5__ops11__pred_iterIZN11OpenImageIO6v3_1_012ImageBufAlgo7IBAprepERNS3_3ROIERNS3_8ImageBufENS3_4spanIKPKS7_Lm18446744073709551615EEENS3_14ParamValueSpanEPNS3_9ImageSpecEE3$_8EENS0_10_Iter_predIT_EESJ_"()
  %7 = call noundef ptr @"_ZSt9__find_ifIPKPKN11OpenImageIO6v3_1_08ImageBufEN9__gnu_cxx5__ops10_Iter_predIZNS1_12ImageBufAlgo7IBAprepERNS1_3ROIERS2_NS1_4spanIS5_Lm18446744073709551615EEENS1_14ParamValueSpanEPNS1_9ImageSpecEE3$_8EEET_SL_SL_T0_"(ptr noundef %5, ptr noundef %6)
  ret ptr %7
}

; Function Attrs: inlinehint mustprogress uwtable
define internal noundef zeroext i1 @"_ZSt7none_ofIPKPKN11OpenImageIO6v3_1_08ImageBufEZNS1_12ImageBufAlgo7IBAprepERNS1_3ROIERS2_NS1_4spanIS5_Lm18446744073709551615EEENS1_14ParamValueSpanEPNS1_9ImageSpecEE3$_8EbT_SH_T0_"(ptr noundef %0, ptr noundef %1) #10 {
  %3 = alloca ptr, align 8
  %4 = alloca ptr, align 8
  store ptr %0, ptr %3, align 8, !tbaa !89
  store ptr %1, ptr %4, align 8, !tbaa !89
  %5 = load ptr, ptr %4, align 8, !tbaa !89
  %6 = load ptr, ptr %3, align 8, !tbaa !89
  %7 = load ptr, ptr %4, align 8, !tbaa !89
  %8 = call noundef ptr @"_ZSt7find_ifIPKPKN11OpenImageIO6v3_1_08ImageBufEZNS1_12ImageBufAlgo7IBAprepERNS1_3ROIERS2_NS1_4spanIS5_Lm18446744073709551615EEENS1_14ParamValueSpanEPNS1_9ImageSpecEE3$_8ET_SH_SH_T0_"(ptr noundef %6, ptr noundef %7)
  %9 = icmp eq ptr %5, %8
  ret i1 %9
}

; Function Attrs: inlinehint mustprogress uwtable
define internal noundef zeroext i1 @"_ZSt6any_ofIPKPKN11OpenImageIO6v3_1_08ImageBufEZNS1_12ImageBufAlgo7IBAprepERNS1_3ROIERS2_NS1_4spanIS5_Lm18446744073709551615EEENS1_14ParamValueSpanEPNS1_9ImageSpecEE3$_8EbT_SH_T0_"(ptr noundef %0, ptr noundef %1) #10 {
  %3 = alloca ptr, align 8
  %4 = alloca ptr, align 8
  store ptr %0, ptr %3, align 8, !tbaa !89
  store ptr %1, ptr %4, align 8, !tbaa !89
  %5 = load ptr, ptr %3, align 8, !tbaa !89
  %6 = load ptr, ptr %4, align 8, !tbaa !89
  %7 = call noundef zeroext i1 @"_ZSt7none_ofIPKPKN11OpenImageIO6v3_1_08ImageBufEZNS1_12ImageBufAlgo7IBAprepERNS1_3ROIERS2_NS1_4spanIS5_Lm18446744073709551615EEENS1_14ParamValueSpanEPNS1_9ImageSpecEE3$_8EbT_SH_T0_"(ptr noundef %5, ptr noundef %6)
  %8 = xor i1 %7, true
  ret i1 %8
}