; Function Attrs: inlinehint mustprogress uwtable
define internal fastcc noundef zeroext i1 @"_ZSt6any_ofIPKPKN11OpenImageIO6v3_1_08ImageBufEZNS1_12ImageBufAlgo7IBAprepERNS1_3ROIERS2_NS1_4spanIS5_Lm18446744073709551615EEENS1_14ParamValueSpanEPNS1_9ImageSpecEE3$_8EbT_SH_T0_"(ptr noundef %0, ptr noundef %1) unnamed_addr #8 {
  %3 = ptrtoint ptr %1 to i64
  %4 = ptrtoint ptr %0 to i64
  %5 = sub i64 %3, %4
  %6 = ashr i64 %5, 5
  %7 = icmp sgt i64 %6, 0
  br i1 %7, label %.lr.ph.i.i.i.i, label %._crit_edge.i.i.i.i

.lr.ph.i.i.i.i:                                   ; preds = %2, %18
  %.044.i.i.i.i = phi i64 [ %20, %18 ], [ %6, %2 ]
  %.02943.i.i.i.i = phi ptr [ %19, %18 ], [ %0, %2 ]
  %.029.val.i.i.i.i = load ptr, ptr %.02943.i.i.i.i, align 8, !tbaa !137
  %8 = tail call noundef zeroext i1 @_ZNK11OpenImageIO6v3_1_08ImageBuf4deepEv(ptr noundef nonnull align 8 dereferenceable(16) %.029.val.i.i.i.i)
  br i1 %8, label %9, label %"_ZSt7none_ofIPKPKN11OpenImageIO6v3_1_08ImageBufEZNS1_12ImageBufAlgo7IBAprepERNS1_3ROIERS2_NS1_4spanIS5_Lm18446744073709551615EEENS1_14ParamValueSpanEPNS1_9ImageSpecEE3$_8EbT_SH_T0_.exit"

9:                                                ; preds = %.lr.ph.i.i.i.i
  %10 = getelementptr inbounds nuw i8, ptr %.02943.i.i.i.i, i64 8
  %.val.i.i.i.i = load ptr, ptr %10, align 8, !tbaa !137
  %11 = tail call noundef zeroext i1 @_ZNK11OpenImageIO6v3_1_08ImageBuf4deepEv(ptr noundef nonnull align 8 dereferenceable(16) %.val.i.i.i.i)
  br i1 %11, label %12, label %"_ZSt7none_ofIPKPKN11OpenImageIO6v3_1_08ImageBufEZNS1_12ImageBufAlgo7IBAprepERNS1_3ROIERS2_NS1_4spanIS5_Lm18446744073709551615EEENS1_14ParamValueSpanEPNS1_9ImageSpecEE3$_8EbT_SH_T0_.exit.loopexit.split.loop.exit"

12:                                               ; preds = %9
  %13 = getelementptr inbounds nuw i8, ptr %.02943.i.i.i.i, i64 16
  %.val30.i.i.i.i = load ptr, ptr %13, align 8, !tbaa !137
  %14 = tail call noundef zeroext i1 @_ZNK11OpenImageIO6v3_1_08ImageBuf4deepEv(ptr noundef nonnull align 8 dereferenceable(16) %.val30.i.i.i.i)
  br i1 %14, label %15, label %"_ZSt7none_ofIPKPKN11OpenImageIO6v3_1_08ImageBufEZNS1_12ImageBufAlgo7IBAprepERNS1_3ROIERS2_NS1_4spanIS5_Lm18446744073709551615EEENS1_14ParamValueSpanEPNS1_9ImageSpecEE3$_8EbT_SH_T0_.exit.loopexit.split.loop.exit14"

15:                                               ; preds = %12
  %16 = getelementptr inbounds nuw i8, ptr %.02943.i.i.i.i, i64 24
  %.val31.i.i.i.i = load ptr, ptr %16, align 8, !tbaa !137
  %17 = tail call noundef zeroext i1 @_ZNK11OpenImageIO6v3_1_08ImageBuf4deepEv(ptr noundef nonnull align 8 dereferenceable(16) %.val31.i.i.i.i)
  br i1 %17, label %18, label %"_ZSt7none_ofIPKPKN11OpenImageIO6v3_1_08ImageBufEZNS1_12ImageBufAlgo7IBAprepERNS1_3ROIERS2_NS1_4spanIS5_Lm18446744073709551615EEENS1_14ParamValueSpanEPNS1_9ImageSpecEE3$_8EbT_SH_T0_.exit.loopexit.split.loop.exit16"

18:                                               ; preds = %15
  %19 = getelementptr inbounds nuw i8, ptr %.02943.i.i.i.i, i64 32
  %20 = add nsw i64 %.044.i.i.i.i, -1
  %21 = icmp sgt i64 %.044.i.i.i.i, 1
  br i1 %21, label %.lr.ph.i.i.i.i, label %._crit_edge.loopexit.i.i.i.i, !llvm.loop !192

._crit_edge.loopexit.i.i.i.i:                     ; preds = %18
  %.pre.i.i.i.i = ptrtoint ptr %19 to i64
  %.pre49.i.i.i.i = sub i64 %3, %.pre.i.i.i.i
  br label %._crit_edge.i.i.i.i

._crit_edge.i.i.i.i:                              ; preds = %._crit_edge.loopexit.i.i.i.i, %2
  %.pre-phi50.i.i.i.i = phi i64 [ %.pre49.i.i.i.i, %._crit_edge.loopexit.i.i.i.i ], [ %5, %2 ]
  %.029.lcssa.i.i.i.i = phi ptr [ %19, %._crit_edge.loopexit.i.i.i.i ], [ %0, %2 ]
  %22 = ashr exact i64 %.pre-phi50.i.i.i.i, 3
  switch i64 %22, label %33 [
    i64 3, label %23
    i64 2, label %27
    i64 1, label %31
  ]

23:                                               ; preds = %._crit_edge.i.i.i.i
  %.029.val32.i.i.i.i = load ptr, ptr %.029.lcssa.i.i.i.i, align 8, !tbaa !137
  %24 = tail call noundef zeroext i1 @_ZNK11OpenImageIO6v3_1_08ImageBuf4deepEv(ptr noundef nonnull align 8 dereferenceable(16) %.029.val32.i.i.i.i)
  br i1 %24, label %25, label %"_ZSt7none_ofIPKPKN11OpenImageIO6v3_1_08ImageBufEZNS1_12ImageBufAlgo7IBAprepERNS1_3ROIERS2_NS1_4spanIS5_Lm18446744073709551615EEENS1_14ParamValueSpanEPNS1_9ImageSpecEE3$_8EbT_SH_T0_.exit"

25:                                               ; preds = %23
  %26 = getelementptr inbounds nuw i8, ptr %.029.lcssa.i.i.i.i, i64 8
  br label %27

27:                                               ; preds = %25, %._crit_edge.i.i.i.i
  %.1.i.i.i.i = phi ptr [ %.029.lcssa.i.i.i.i, %._crit_edge.i.i.i.i ], [ %26, %25 ]
  %.1.val.i.i.i.i = load ptr, ptr %.1.i.i.i.i, align 8, !tbaa !137
  %28 = tail call noundef zeroext i1 @_ZNK11OpenImageIO6v3_1_08ImageBuf4deepEv(ptr noundef nonnull align 8 dereferenceable(16) %.1.val.i.i.i.i)
  br i1 %28, label %29, label %"_ZSt7none_ofIPKPKN11OpenImageIO6v3_1_08ImageBufEZNS1_12ImageBufAlgo7IBAprepERNS1_3ROIERS2_NS1_4spanIS5_Lm18446744073709551615EEENS1_14ParamValueSpanEPNS1_9ImageSpecEE3$_8EbT_SH_T0_.exit"

29:                                               ; preds = %27
  %30 = getelementptr inbounds nuw i8, ptr %.1.i.i.i.i, i64 8
  br label %31

31:                                               ; preds = %29, %._crit_edge.i.i.i.i
  %.2.i.i.i.i = phi ptr [ %.029.lcssa.i.i.i.i, %._crit_edge.i.i.i.i ], [ %30, %29 ]
  %.2.val.i.i.i.i = load ptr, ptr %.2.i.i.i.i, align 8, !tbaa !137
  %32 = tail call noundef zeroext i1 @_ZNK11OpenImageIO6v3_1_08ImageBuf4deepEv(ptr noundef nonnull align 8 dereferenceable(16) %.2.val.i.i.i.i)
  br i1 %32, label %33, label %"_ZSt7none_ofIPKPKN11OpenImageIO6v3_1_08ImageBufEZNS1_12ImageBufAlgo7IBAprepERNS1_3ROIERS2_NS1_4spanIS5_Lm18446744073709551615EEENS1_14ParamValueSpanEPNS1_9ImageSpecEE3$_8EbT_SH_T0_.exit"

33:                                               ; preds = %31, %._crit_edge.i.i.i.i
  br label %"_ZSt7none_ofIPKPKN11OpenImageIO6v3_1_08ImageBufEZNS1_12ImageBufAlgo7IBAprepERNS1_3ROIERS2_NS1_4spanIS5_Lm18446744073709551615EEENS1_14ParamValueSpanEPNS1_9ImageSpecEE3$_8EbT_SH_T0_.exit"

"_ZSt7none_ofIPKPKN11OpenImageIO6v3_1_08ImageBufEZNS1_12ImageBufAlgo7IBAprepERNS1_3ROIERS2_NS1_4spanIS5_Lm18446744073709551615EEENS1_14ParamValueSpanEPNS1_9ImageSpecEE3$_8EbT_SH_T0_.exit.loopexit.split.loop.exit": ; preds = %9
  %34 = getelementptr inbounds nuw i8, ptr %.02943.i.i.i.i, i64 8
  br label %"_ZSt7none_ofIPKPKN11OpenImageIO6v3_1_08ImageBufEZNS1_12ImageBufAlgo7IBAprepERNS1_3ROIERS2_NS1_4spanIS5_Lm18446744073709551615EEENS1_14ParamValueSpanEPNS1_9ImageSpecEE3$_8EbT_SH_T0_.exit"

"_ZSt7none_ofIPKPKN11OpenImageIO6v3_1_08ImageBufEZNS1_12ImageBufAlgo7IBAprepERNS1_3ROIERS2_NS1_4spanIS5_Lm18446744073709551615EEENS1_14ParamValueSpanEPNS1_9ImageSpecEE3$_8EbT_SH_T0_.exit.loopexit.split.loop.exit14": ; preds = %12
  %35 = getelementptr inbounds nuw i8, ptr %.02943.i.i.i.i, i64 16
  br label %"_ZSt7none_ofIPKPKN11OpenImageIO6v3_1_08ImageBufEZNS1_12ImageBufAlgo7IBAprepERNS1_3ROIERS2_NS1_4spanIS5_Lm18446744073709551615EEENS1_14ParamValueSpanEPNS1_9ImageSpecEE3$_8EbT_SH_T0_.exit"

"_ZSt7none_ofIPKPKN11OpenImageIO6v3_1_08ImageBufEZNS1_12ImageBufAlgo7IBAprepERNS1_3ROIERS2_NS1_4spanIS5_Lm18446744073709551615EEENS1_14ParamValueSpanEPNS1_9ImageSpecEE3$_8EbT_SH_T0_.exit.loopexit.split.loop.exit16": ; preds = %15
  %36 = getelementptr inbounds nuw i8, ptr %.02943.i.i.i.i, i64 24
  br label %"_ZSt7none_ofIPKPKN11OpenImageIO6v3_1_08ImageBufEZNS1_12ImageBufAlgo7IBAprepERNS1_3ROIERS2_NS1_4spanIS5_Lm18446744073709551615EEENS1_14ParamValueSpanEPNS1_9ImageSpecEE3$_8EbT_SH_T0_.exit"

"_ZSt7none_ofIPKPKN11OpenImageIO6v3_1_08ImageBufEZNS1_12ImageBufAlgo7IBAprepERNS1_3ROIERS2_NS1_4spanIS5_Lm18446744073709551615EEENS1_14ParamValueSpanEPNS1_9ImageSpecEE3$_8EbT_SH_T0_.exit": ; preds = %.lr.ph.i.i.i.i, %"_ZSt7none_ofIPKPKN11OpenImageIO6v3_1_08ImageBufEZNS1_12ImageBufAlgo7IBAprepERNS1_3ROIERS2_NS1_4spanIS5_Lm18446744073709551615EEENS1_14ParamValueSpanEPNS1_9ImageSpecEE3$_8EbT_SH_T0_.exit.loopexit.split.loop.exit", %"_ZSt7none_ofIPKPKN11OpenImageIO6v3_1_08ImageBufEZNS1_12ImageBufAlgo7IBAprepERNS1_3ROIERS2_NS1_4spanIS5_Lm18446744073709551615EEENS1_14ParamValueSpanEPNS1_9ImageSpecEE3$_8EbT_SH_T0_.exit.loopexit.split.loop.exit14", %"_ZSt7none_ofIPKPKN11OpenImageIO6v3_1_08ImageBufEZNS1_12ImageBufAlgo7IBAprepERNS1_3ROIERS2_NS1_4spanIS5_Lm18446744073709551615EEENS1_14ParamValueSpanEPNS1_9ImageSpecEE3$_8EbT_SH_T0_.exit.loopexit.split.loop.exit16", %23, %27, %31, %33
  %.028.i.i.i.i = phi ptr [ %1, %33 ], [ %.029.lcssa.i.i.i.i, %23 ], [ %.1.i.i.i.i, %27 ], [ %.2.i.i.i.i, %31 ], [ %34, %"_ZSt7none_ofIPKPKN11OpenImageIO6v3_1_08ImageBufEZNS1_12ImageBufAlgo7IBAprepERNS1_3ROIERS2_NS1_4spanIS5_Lm18446744073709551615EEENS1_14ParamValueSpanEPNS1_9ImageSpecEE3$_8EbT_SH_T0_.exit.loopexit.split.loop.exit" ], [ %35, %"_ZSt7none_ofIPKPKN11OpenImageIO6v3_1_08ImageBufEZNS1_12ImageBufAlgo7IBAprepERNS1_3ROIERS2_NS1_4spanIS5_Lm18446744073709551615EEENS1_14ParamValueSpanEPNS1_9ImageSpecEE3$_8EbT_SH_T0_.exit.loopexit.split.loop.exit14" ], [ %36, %"_ZSt7none_ofIPKPKN11OpenImageIO6v3_1_08ImageBufEZNS1_12ImageBufAlgo7IBAprepERNS1_3ROIERS2_NS1_4spanIS5_Lm18446744073709551615EEENS1_14ParamValueSpanEPNS1_9ImageSpecEE3$_8EbT_SH_T0_.exit.loopexit.split.loop.exit16" ], [ %.02943.i.i.i.i, %.lr.ph.i.i.i.i ]
  %37 = icmp ne ptr %1, %.028.i.i.i.i
  ret i1 %37
}